target datalayout = "e-m:e-p270:32:32-p271:32:32-p272:64:64-i64:64-i128:128-f80:128-n8:16:32:64-S128"
target triple = "x86_64-pc-linux-gnu"

%struct.jit_State = type { %struct.GCtrace, ptr, ptr, ptr, ptr, ptr, ptr, i32, i32, i32, i8, i8, %struct.IRType1, i8, %struct.FoldState, ptr, i32, i32, i32, i32, i32, i32, i32, [1 x i32], [5 x %union.TValue], [3 x %union.TValue], ptr, i32, i32, i32, i32, ptr, ptr, i32, i32, i8, ptr, i32, i32, i16, [101 x i16], [258 x i32], [15 x i32], [16 x ptr], [64 x %struct.HotPenalty], i32, [16 x %struct.BPropEntry], i32, %struct.ScEvEntry, ptr, i32, i32, i32, ptr, i32, i32, ptr, ptr, ptr, i64, i64, %union.TValue, ptr, i32, i32 }
%struct.GCtrace = type { %struct.GCRef, i8, i8, i16, i32, i32, %struct.GCRef, ptr, i32, i32, ptr, ptr, %struct.GCRef, %struct.MRef, i32, i32, ptr, i32, i16, i16, i16, i16, i16, i16, i16, i8, i8, i8, i8 }
%struct.GCRef = type { i64 }
%struct.MRef = type { i64 }
%struct.IRType1 = type { i8 }
%struct.FoldState = type { %union.IRIns, [2 x %union.IRIns], [2 x %union.IRIns] }
%union.IRIns = type { %struct.GCRef }
%struct.HotPenalty = type { %struct.MRef, i16, i16 }
%struct.BPropEntry = type { i16, i16, i32 }
%struct.ScEvEntry = type { %struct.MRef, i16, i16, i16, i16, %struct.IRType1, i8 }
%union.TValue = type { i64 }
%struct.anon = type { i16, i16, i16, i16 }

; Function Attrs: alwaysinline nounwind uwtable
define internal void @lj_ir_set_(ptr noundef %0, i16 noundef zeroext %1, i16 noundef zeroext %2, i16 noundef zeroext %3) #2 {
  %5 = alloca ptr, align 8
  %6 = alloca i16, align 2
  %7 = alloca i16, align 2
  %8 = alloca i16, align 2
  store ptr %0, ptr %5, align 8, !tbaa !4
  store i16 %1, ptr %6, align 2, !tbaa !44
  store i16 %2, ptr %7, align 2, !tbaa !44
  store i16 %3, ptr %8, align 2, !tbaa !44
  %9 = load i16, ptr %6, align 2, !tbaa !44
  %10 = load ptr, ptr %5, align 8, !tbaa !4
  %11 = getelementptr inbounds nuw %struct.jit_State, ptr %10, i32 0, i32 14
  %12 = getelementptr inbounds nuw %struct.FoldState, ptr %11, i32 0, i32 0
  %13 = getelementptr inbounds nuw %struct.anon, ptr %12, i32 0, i32 2
  store i16 %9, ptr %13, align 4, !tbaa !33
  %14 = load i16, ptr %7, align 2, !tbaa !44
  %15 = load ptr, ptr %5, align 8, !tbaa !4
  %16 = getelementptr inbounds nuw %struct.jit_State, ptr %15, i32 0, i32 14
  %17 = getelementptr inbounds nuw %struct.FoldState, ptr %16, i32 0, i32 0
  %18 = getelementptr inbounds nuw %struct.anon, ptr %17, i32 0, i32 0
  store i16 %14, ptr %18, align 8, !tbaa !33
  %19 = load i16, ptr %8, align 2, !tbaa !44
  %20 = load ptr, ptr %5, align 8, !tbaa !4
  %21 = getelementptr inbounds nuw %struct.jit_State, ptr %20, i32 0, i32 14
  %22 = getelementptr inbounds nuw %struct.FoldState, ptr %21, i32 0, i32 0
  %23 = getelementptr inbounds nuw %struct.anon, ptr %22, i32 0, i32 1
  store i16 %19, ptr %23, align 2, !tbaa !33
  ret void
}

; Function Attrs: alwaysinline nounwind uwtable
define internal i32 @numberVint(ptr noundef %0) #2 {
  %2 = alloca ptr, align 8
  store ptr %0, ptr %2, align 8, !tbaa !53
  %3 = load ptr, ptr %2, align 8, !tbaa !53
  %4 = load double, ptr %3, align 8, !tbaa !33
  %5 = fptosi double %4 to i32
  ret i32 %5
}

; Function Attrs: nounwind uwtable
define internal i32 @conv_str_tonum(ptr noundef %0, i32 noundef %1, ptr noundef %2) #0 {
  %4 = alloca ptr, align 8
  %5 = alloca i32, align 4
  %6 = alloca ptr, align 8
  store ptr %0, ptr %4, align 8, !tbaa !4
  store i32 %1, ptr %5, align 4, !tbaa !38
  store ptr %2, ptr %6, align 8, !tbaa !53
  %7 = load i32, ptr %5, align 4, !tbaa !38
  %8 = and i32 %7, 520093696
  %9 = icmp eq i32 %8, 67108864
  br i1 %9, label %10, label %27

10:                                               ; preds = %3
  %11 = load ptr, ptr %4, align 8, !tbaa !4
  %12 = load i32, ptr %5, align 4, !tbaa !38
  %13 = trunc i32 %12 to i16
  call void @lj_ir_set_(ptr noundef %11, i16 noundef zeroext 24206, i16 noundef zeroext %13, i16 noundef zeroext 0)
  %14 = load ptr, ptr %4, align 8, !tbaa !4
  %15 = call i32 @lj_opt_fold(ptr noundef %14)
  store i32 %15, ptr %5, align 4, !tbaa !38
  %16 = load ptr, ptr %6, align 8, !tbaa !53
  %17 = getelementptr inbounds nuw %struct.GCRef, ptr %16, i32 0, i32 0
  %18 = load i64, ptr %17, align 8, !tbaa !33
  %19 = and i64 %18, 140737488355327
  %20 = inttoptr i64 %19 to ptr
  %21 = load ptr, ptr %6, align 8, !tbaa !53
  %22 = call i32 @lj_strscan_num(ptr noundef %20, ptr noundef %21)
  %23 = icmp ne i32 %22, 0
  br i1 %23, label %26, label %24

24:                                               ; preds = %10
  %25 = load ptr, ptr %4, align 8, !tbaa !4
  call void @lj_trace_err(ptr noundef %25, i32 noundef 11) #6
  unreachable

26:                                               ; preds = %10
  br label %27

27:                                               ; preds = %26, %3
  %28 = load i32, ptr %5, align 4, !tbaa !38
  ret i32 %28
}

; Function Attrs: nounwind uwtable
define hidden i32 @lj_opt_narrow_unm(ptr noundef %0, i32 noundef %1, ptr noundef %2) #0 {
  %4 = alloca i32, align 4
  %5 = alloca ptr, align 8
  %6 = alloca i32, align 4
  %7 = alloca ptr, align 8
  %8 = alloca i32, align 4
  %9 = alloca i32, align 4
  %10 = alloca i32, align 4
  store ptr %0, ptr %5, align 8, !tbaa !4
  store i32 %1, ptr %6, align 4, !tbaa !38
  store ptr %2, ptr %7, align 8, !tbaa !53
  %11 = load ptr, ptr %5, align 8, !tbaa !4
  %12 = load i32, ptr %6, align 4, !tbaa !38
  %13 = load ptr, ptr %7, align 8, !tbaa !53
  %14 = call i32 @conv_str_tonum(ptr noundef %11, i32 noundef %12, ptr noundef %13)
  store i32 %14, ptr %6, align 4, !tbaa !38
  %15 = load i32, ptr %6, align 4, !tbaa !38
  %16 = lshr i32 %15, 24
  %17 = and i32 %16, 31
  %18 = sub i32 %17, 15
  %19 = icmp ule i32 %18, 4
  br i1 %19, label %20, label %54

20:                                               ; preds = %3
  call void @llvm.lifetime.start.p0(i64 4, ptr %8) #5
  %21 = load ptr, ptr %7, align 8, !tbaa !53
  %22 = call i32 @numberVint(ptr noundef %21)
  store i32 %22, ptr %8, align 4, !tbaa !38
  %23 = load i32, ptr %8, align 4, !tbaa !38
  %24 = icmp ne i32 %23, 0
  br i1 %24, label %25, label %45

25:                                               ; preds = %20
  %26 = load i32, ptr %8, align 4, !tbaa !38
  %27 = icmp ne i32 %26, -2147483648
  br i1 %27, label %28, label %45

28:                                               ; preds = %25
  call void @llvm.lifetime.start.p0(i64 4, ptr %9) #5
  %29 = load ptr, ptr %5, align 8, !tbaa !4
  %30 = call i32 @lj_ir_kint(ptr noundef %29, i32 noundef 0)
  store i32 %30, ptr %9, align 4, !tbaa !38
  %31 = load ptr, ptr %5, align 8, !tbaa !4
  %32 = load i32, ptr %6, align 4, !tbaa !38
  %33 = trunc i32 %32 to i16
  %34 = load i32, ptr %9, align 4, !tbaa !38
  %35 = trunc i32 %34 to i16
  call void @lj_ir_set_(ptr noundef %31, i16 noundef zeroext 2451, i16 noundef zeroext %33, i16 noundef zeroext %35)
  %36 = load ptr, ptr %5, align 8, !tbaa !4
  %37 = call i32 @lj_opt_fold(ptr noundef %36)
  %38 = load ptr, ptr %5, align 8, !tbaa !4
  %39 = load i32, ptr %9, align 4, !tbaa !38
  %40 = trunc i32 %39 to i16
  %41 = load i32, ptr %6, align 4, !tbaa !38
  %42 = trunc i32 %41 to i16
  call void @lj_ir_set_(ptr noundef %38, i16 noundef zeroext 13971, i16 noundef zeroext %40, i16 noundef zeroext %42)
  %43 = load ptr, ptr %5, align 8, !tbaa !4
  %44 = call i32 @lj_opt_fold(ptr noundef %43)
  store i32 %44, ptr %4, align 4
  store i32 1, ptr %10, align 4
  call void @llvm.lifetime.end.p0(i64 4, ptr %9) #5
  br label %51

45:                                               ; preds = %25, %20
  %46 = load ptr, ptr %5, align 8, !tbaa !4
  %47 = load i32, ptr %6, align 4, !tbaa !38
  %48 = trunc i32 %47 to i16
  call void @lj_ir_set_(ptr noundef %46, i16 noundef zeroext 23310, i16 noundef zeroext %48, i16 noundef zeroext 467)
  %49 = load ptr, ptr %5, align 8, !tbaa !4
  %50 = call i32 @lj_opt_fold(ptr noundef %49)
  store i32 %50, ptr %6, align 4, !tbaa !38
  store i32 0, ptr %10, align 4
  br label %51

51:                                               ; preds = %45, %28
  call void @llvm.lifetime.end.p0(i64 4, ptr %8) #5
  %52 = load i32, ptr %10, align 4
  switch i32 %52, label %77 [
    i32 0, label %53
    i32 1, label %75
  ]

53:                                               ; preds = %51
  br label %54

54:                                               ; preds = %53, %3
  %55 = load ptr, ptr %5, align 8, !tbaa !4
  %56 = load i32, ptr %6, align 4, !tbaa !38
  %57 = trunc i32 %56 to i16
  %58 = load ptr, ptr %5, align 8, !tbaa !4
  %59 = load ptr, ptr %5, align 8, !tbaa !4
  %60 = getelementptr inbounds nuw %struct.jit_State, ptr %59, i32 0, i32 24
  %61 = getelementptr inbounds [5 x %union.TValue], ptr %60, i64 0, i64 2
  %62 = ptrtoint ptr %61 to i64
  %63 = add nsw i64 %62, 15
  %64 = and i64 %63, -16
  %65 = inttoptr i64 %64 to ptr
  %66 = ptrtoint ptr %65 to i64
  %67 = load ptr, ptr %5, align 8, !tbaa !4
  %68 = getelementptr inbounds i8, ptr %67, i64 -832
  %69 = ptrtoint ptr %68 to i64
  %70 = sub i64 %66, %69
  %71 = call i32 @lj_ir_ggfload(ptr noundef %58, i32 noundef 14, i64 noundef %70)
  %72 = trunc i32 %71 to i16
  call void @lj_ir_set_(ptr noundef %55, i16 noundef zeroext 12046, i16 noundef zeroext %57, i16 noundef zeroext %72)
  %73 = load ptr, ptr %5, align 8, !tbaa !4
  %74 = call i32 @lj_opt_fold(ptr noundef %73)
  store i32 %74, ptr %4, align 4
  br label %75

75:                                               ; preds = %54, %51
  %76 = load i32, ptr %4, align 4
  ret i32 %76

77:                                               ; preds = %51
  unreachable
}