; Function Attrs: nounwind uwtable
define hidden i32 @lj_opt_narrow_unm(ptr noundef %0, i32 noundef %1, ptr noundef %2) local_unnamed_addr #0 {
  %4 = and i32 %1, 520093696
  %5 = icmp eq i32 %4, 67108864
  br i1 %5, label %6, label %conv_str_tonum.exit

6:                                                ; preds = %3
  %7 = trunc i32 %1 to i16
  %8 = getelementptr inbounds nuw i8, ptr %0, i64 184
  %9 = getelementptr inbounds nuw i8, ptr %0, i64 188
  store i16 24206, ptr %9, align 4, !tbaa !32
  store i16 %7, ptr %8, align 8, !tbaa !32
  %10 = getelementptr inbounds nuw i8, ptr %0, i64 186
  store i16 0, ptr %10, align 2, !tbaa !32
  %11 = tail call i32 @lj_opt_fold(ptr noundef %0) #6
  %12 = load i64, ptr %2, align 8, !tbaa !32
  %13 = and i64 %12, 140737488355327
  %14 = inttoptr i64 %13 to ptr
  %15 = tail call i32 @lj_strscan_num(ptr noundef %14, ptr noundef nonnull %2) #6
  %.not.i = icmp eq i32 %15, 0
  br i1 %.not.i, label %16, label %conv_str_tonum.exit

16:                                               ; preds = %6
  tail call void @lj_trace_err(ptr noundef nonnull %0, i32 noundef 11) #7
  unreachable

conv_str_tonum.exit:                              ; preds = %3, %6
  %.0.i = phi i32 [ %11, %6 ], [ %1, %3 ]
  %17 = lshr i32 %.0.i, 24
  %18 = and i32 %17, 31
  %19 = add nsw i32 %18, -15
  %20 = icmp ult i32 %19, 5
  br i1 %20, label %21, label %38

21:                                               ; preds = %conv_str_tonum.exit
  %22 = load double, ptr %2, align 8, !tbaa !32
  %23 = fptosi double %22 to i32
  %24 = and i32 %23, 2147483647
  %or.cond.not.not = icmp eq i32 %24, 0
  br i1 %or.cond.not.not, label %.thread, label %30

.thread:                                          ; preds = %21
  %25 = trunc i32 %.0.i to i16
  %26 = getelementptr inbounds nuw i8, ptr %0, i64 184
  %27 = getelementptr inbounds nuw i8, ptr %0, i64 188
  store i16 23310, ptr %27, align 4, !tbaa !32
  store i16 %25, ptr %26, align 8, !tbaa !32
  %28 = getelementptr inbounds nuw i8, ptr %0, i64 186
  store i16 467, ptr %28, align 2, !tbaa !32
  %29 = tail call i32 @lj_opt_fold(ptr noundef %0) #6
  br label %38

30:                                               ; preds = %21
  %31 = tail call i32 @lj_ir_kint(ptr noundef %0, i32 noundef 0) #6
  %32 = trunc i32 %.0.i to i16
  %33 = trunc i32 %31 to i16
  %34 = getelementptr inbounds nuw i8, ptr %0, i64 184
  %35 = getelementptr inbounds nuw i8, ptr %0, i64 188
  store i16 2451, ptr %35, align 4, !tbaa !32
  store i16 %32, ptr %34, align 8, !tbaa !32
  %36 = getelementptr inbounds nuw i8, ptr %0, i64 186
  store i16 %33, ptr %36, align 2, !tbaa !32
  %37 = tail call i32 @lj_opt_fold(ptr noundef %0) #6
  store i16 13971, ptr %35, align 4, !tbaa !32
  store i16 %33, ptr %34, align 8, !tbaa !32
  store i16 %32, ptr %36, align 2, !tbaa !32
  br label %52

38:                                               ; preds = %.thread, %conv_str_tonum.exit
  %.028 = phi i32 [ %.0.i, %conv_str_tonum.exit ], [ %29, %.thread ]
  %39 = trunc i32 %.028 to i16
  %40 = getelementptr inbounds nuw i8, ptr %0, i64 280
  %41 = ptrtoint ptr %40 to i64
  %42 = add nsw i64 %41, 15
  %43 = and i64 %42, -16
  %44 = getelementptr inbounds i8, ptr %0, i64 -832
  %45 = ptrtoint ptr %44 to i64
  %46 = sub i64 %43, %45
  %47 = tail call i32 @lj_ir_ggfload(ptr noundef %0, i32 noundef 14, i64 noundef %46) #6
  %48 = trunc i32 %47 to i16
  %49 = getelementptr inbounds nuw i8, ptr %0, i64 184
  %50 = getelementptr inbounds nuw i8, ptr %0, i64 188
  store i16 12046, ptr %50, align 4, !tbaa !32
  store i16 %39, ptr %49, align 8, !tbaa !32
  %51 = getelementptr inbounds nuw i8, ptr %0, i64 186
  store i16 %48, ptr %51, align 2, !tbaa !32
  br label %52

52:                                               ; preds = %30, %38
  %53 = tail call i32 @lj_opt_fold(ptr noundef %0) #6
  ret i32 %53
}